; Function Attrs: mustprogress uwtable
define void @_ZN2cv11bitwise_notERKNS_11_InputArrayERKNS_12_OutputArrayES2_(ptr noundef nonnull align 8 dereferenceable(24) %0, ptr noundef nonnull align 8 dereferenceable(24) %1, ptr noundef nonnull align 8 dereferenceable(24) %2) local_unnamed_addr #0 personality ptr @__gxx_personality_v0 {
  %4 = alloca %"class.cv::utils::trace::details::Region", align 8
  %5 = alloca ptr, align 8
  call void @_ZN2cv5utils5trace7details6RegionC1ERKNS3_21LocationStaticStorageE(ptr noundef nonnull align 8 dereferenceable(12) %4, ptr noundef nonnull align 8 dereferenceable(32) @_ZZN2cv11bitwise_notERKNS_11_InputArrayERKNS_12_OutputArrayES2_E25__cv_trace_location_fn386)
  store ptr @_ZN2cv3hal5not8uEPKhmS2_mPhmiiPv, ptr %5, align 8
  invoke fastcc void @_ZN2cvL9binary_opERKNS_11_InputArrayES2_RKNS_12_OutputArrayES2_PKPFvPKhmS7_mPhmiiPvEbi(ptr noundef nonnull align 8 dereferenceable(24) %0, ptr noundef nonnull align 8 dereferenceable(24) %0, ptr noundef nonnull align 8 dereferenceable(24) %1, ptr noundef nonnull align 8 dereferenceable(24) %2, ptr noundef nonnull %5, i1 noundef zeroext true, i32 noundef 12)
          to label %6 unwind label %13

6:                                                ; preds = %3
  %7 = getelementptr inbounds i8, ptr %4, i64 8
  %8 = load i32, ptr %7, align 8
  %.not.i = icmp eq i32 %8, 0
  br i1 %.not.i, label %_ZN2cv5utils5trace7details6RegionD2Ev.exit, label %9

9:                                                ; preds = %6
  invoke void @_ZN2cv5utils5trace7details6Region7destroyEv(ptr noundef nonnull align 8 dereferenceable(12) %4)
          to label %_ZN2cv5utils5trace7details6RegionD2Ev.exit unwind label %10

10:                                               ; preds = %9
  %11 = landingpad { ptr, i32 }
          catch ptr null
  %12 = extractvalue { ptr, i32 } %11, 0
  call void @__clang_call_terminate(ptr %12) #17
  unreachable

_ZN2cv5utils5trace7details6RegionD2Ev.exit:       ; preds = %6, %9
  ret void

13:                                               ; preds = %3
  %14 = landingpad { ptr, i32 }
          cleanup
  call void @_ZN2cv5utils5trace7details6RegionD2Ev(ptr noundef nonnull align 8 dereferenceable(12) %4) #18
  resume { ptr, i32 } %14
}